###############################################################################
#                                                                             #
# IAR ELF Linker V6.30.6.53336/W32 for ARM              13/May/2015  09:19:41 #
# Copyright 2007-2012 IAR Systems AB.                                         #
#                                                                             #
#    Output file  =  D:\Repository\STM32-P103\Software\trunk\WEB_files\Demo_E #
#                    xample_WEB_files\STM32-P103_UEXT_Demo\Project\MOD-LCD331 #
#                    0_GPIO\Exe\STM3210B-EVAL.out                             #
#    Map file     =  D:\Repository\STM32-P103\Software\trunk\WEB_files\Demo_E #
#                    xample_WEB_files\STM32-P103_UEXT_Demo\Project\MOD-LCD331 #
#                    0_GPIO\List\STM3210B-EVAL.map                            #
#    Command line =  D:\Repository\STM32-P103\Software\trunk\WEB_files\Demo_E #
#                    xample_WEB_files\STM32-P103_UEXT_Demo\Project\MOD-LCD331 #
#                    0_GPIO\Obj\lcd3310_GPIO.o D:\Repository\STM32-P103\Softw #
#                    are\trunk\WEB_files\Demo_Example_WEB_files\STM32-P103_UE #
#                    XT_Demo\Project\MOD-LCD3310_GPIO\Obj\main.o              #
#                    D:\Repository\STM32-P103\Software\trunk\WEB_files\Demo_E #
#                    xample_WEB_files\STM32-P103_UEXT_Demo\Project\MOD-LCD331 #
#                    0_GPIO\Obj\misc.o D:\Repository\STM32-P103\Software\trun #
#                    k\WEB_files\Demo_Example_WEB_files\STM32-P103_UEXT_Demo\ #
#                    Project\MOD-LCD3310_GPIO\Obj\stm32_eval.o                #
#                    D:\Repository\STM32-P103\Software\trunk\WEB_files\Demo_E #
#                    xample_WEB_files\STM32-P103_UEXT_Demo\Project\MOD-LCD331 #
#                    0_GPIO\Obj\stm32f10x_exti.o                              #
#                    D:\Repository\STM32-P103\Software\trunk\WEB_files\Demo_E #
#                    xample_WEB_files\STM32-P103_UEXT_Demo\Project\MOD-LCD331 #
#                    0_GPIO\Obj\stm32f10x_gpio.o                              #
#                    D:\Repository\STM32-P103\Software\trunk\WEB_files\Demo_E #
#                    xample_WEB_files\STM32-P103_UEXT_Demo\Project\MOD-LCD331 #
#                    0_GPIO\Obj\stm32f10x_it.o D:\Repository\STM32-P103\Softw #
#                    are\trunk\WEB_files\Demo_Example_WEB_files\STM32-P103_UE #
#                    XT_Demo\Project\MOD-LCD3310_GPIO\Obj\stm32f10x_rcc.o     #
#                    D:\Repository\STM32-P103\Software\trunk\WEB_files\Demo_E #
#                    xample_WEB_files\STM32-P103_UEXT_Demo\Project\MOD-LCD331 #
#                    0_GPIO\Obj\stm32f10x_spi.o D:\Repository\STM32-P103\Soft #
#                    ware\trunk\WEB_files\Demo_Example_WEB_files\STM32-P103_U #
#                    EXT_Demo\Project\MOD-LCD3310_GPIO\Obj\system_stm32f10x.o #
#                     --redirect _Printf=_PrintfFull --redirect               #
#                    _Scanf=_ScanfFull -o D:\Repository\STM32-P103\Software\t #
#                    runk\WEB_files\Demo_Example_WEB_files\STM32-P103_UEXT_De #
#                    mo\Project\MOD-LCD3310_GPIO\Exe\STM3210B-EVAL.out --map  #
#                    D:\Repository\STM32-P103\Software\trunk\WEB_files\Demo_E #
#                    xample_WEB_files\STM32-P103_UEXT_Demo\Project\MOD-LCD331 #
#                    0_GPIO\List\STM3210B-EVAL.map --config                   #
#                    D:\Repository\STM32-P103\Software\trunk\WEB_files\Demo_E #
#                    xample_WEB_files\STM32-P103_UEXT_Demo\Project\STM32F10x_ #
#                    FLASH.icf --semihosting --entry __iar_program_start      #
#                    --redirect __iar_sh_stdout=__iar_sh_stdout_swo --vfe     #
#                                                                             #
#                                                                             #
###############################################################################

*******************************************************************************
*** RUNTIME MODEL ATTRIBUTES
***

CppFlavor       = *
__SystemLibrary = DLib


*******************************************************************************
*** PLACEMENT SUMMARY
***

"A1":  place at 0x08000000 { ro section .intvec };
"P1":  place in [from 0x08000000 to 0x0807ffff] { ro };
"P2":  place in [from 0x20000000 to 0x2000ffff] { rw, block CSTACK, block HEAP };

  Section            Kind        Address   Size  Object
  -------            ----        -------   ----  ------
"A1":                                      0x40
  .intvec            ro code  0x08000000   0x40  vector_table_M.o [4]
                            - 0x08000040   0x40

"P1":                                     0xb4c
  .text              ro code  0x08000040  0x488  lcd3310_GPIO.o [1]
  .text              ro code  0x080004c8   0x18  stm32f10x_rcc.o [1]
  .text              ro code  0x080004e0   0xf4  stm32f10x_gpio.o [1]
  .text              ro code  0x080005d4    0x6  ABImemclr4.o [4]
  .text              ro code  0x080005da   0x2e  copy_init3.o [4]
  .text              ro code  0x08000608   0x32  ABImemset48.o [4]
  .text              ro code  0x0800063a   0x22  zero_init3.o [4]
  .text              ro code  0x0800065c  0x19c  main.o [1]
  .text              ro code  0x080007f8   0xe4  system_stm32f10x.o [1]
  .text              ro code  0x080008dc  0x12a  stm32_eval.o [1]
  .text              ro code  0x08000a06   0x12  stm32f10x_it.o [1]
  .text              ro code  0x08000a18   0x68  stm32f10x_exti.o [1]
  .text              ro code  0x08000a80   0x68  misc.o [1]
  .text              ro code  0x08000ae8   0x2c  data_init3.o [4]
  .iar.init_table    const    0x08000b14   0x24  - Linker created -
  .text              ro code  0x08000b38   0x16  cmain.o [4]
  .text              ro code  0x08000b4e    0x4  low_level_init.o [3]
  .text              ro code  0x08000b52    0x4  exit.o [3]
  .text              ro code  0x08000b56    0x2  vector_table_M.o [4]
  .text              ro code  0x08000b58    0xa  cexit.o [4]
  .text              ro code  0x08000b64   0x14  exit.o [5]
  .text              ro code  0x08000b78    0xc  cstartup_M.o [4]
  .rodata            const    0x08000b84    0x0  bwt_init3c.o [4]
  Initializer bytes  ro data  0x08000b84    0x8  <for P2 s0>
                            - 0x08000b8c  0xb4c

"P2", part 1 of 3:                          0x8
  P2 s0                       0x20000000    0x8  <Init block>
    .data            inited   0x20000000    0x4  stm32_eval.o [1]
    .data            inited   0x20000004    0x4  stm32_eval.o [1]
                            - 0x20000008    0x8

"P2", part 2 of 3:                        0x200
  .bss               zero     0x20000008  0x1f8  lcd3310_GPIO.o [1]
  .bss               zero     0x20000200    0x4  main.o [1]
                            - 0x20000204  0x1fc

"P2", part 3 of 3:                        0x400
  CSTACK                      0x20000208  0x400  <Block>
    CSTACK           uninit   0x20000208  0x400  <Block tail>
                            - 0x20000608  0x400


*******************************************************************************
*** INIT TABLE
***

          Address     Size
          -------     ----
Zero (__iar_zero_init3)
    1 destination range, total size 0x1fc:
          0x20000008  0x1fc

Copy (__iar_copy_init3)
    1 source range, total size 0x8:
          0x08000b84    0x8
    1 destination range, total size 0x8:
          0x20000000    0x8



*******************************************************************************
*** MODULE SUMMARY
***

    Module              ro code  ro data  rw data
    ------              -------  -------  -------
D:\Repository\STM32-P103\Software\trunk\WEB_files\Demo_Example_WEB_files\STM32-P103_UEXT_Demo\Project\MOD-LCD3310_GPIO\Obj: [1]
    lcd3310_GPIO.o        1 160               504
    main.o                  412                 4
    misc.o                  104
    stm32_eval.o            298        8        8
    stm32f10x_exti.o        104
    stm32f10x_gpio.o        244
    stm32f10x_it.o           18
    stm32f10x_rcc.o          24
    system_stm32f10x.o      228
    ---------------------------------------------
    Total:                2 592        8      516

command line: [2]
    ---------------------------------------------
    Total:

dl7M_tln.a: [3]
    exit.o                    4
    low_level_init.o          4
    ---------------------------------------------
    Total:                    8

rt7M_tl.a: [4]
    ABImemclr4.o              6
    ABImemset48.o            50
    bwt_init3c.o
    cexit.o                  10
    cmain.o                  22
    copy_init3.o             46
    cstartup_M.o             12
    data_init3.o             44
    vector_table_M.o         66
    zero_init3.o             34
    ---------------------------------------------
    Total:                  290

shb_l.a: [5]
    exit.o                   20
    ---------------------------------------------
    Total:                   20

    Gaps                      2
    Linker created                    36    1 024
-------------------------------------------------
    Grand Total:          2 912       44    1 540


*******************************************************************************
*** ENTRY LIST
***

Entry                      Address   Size  Type      Object
-----                      -------   ----  ----      ------
?main                   0x08000b39         Code  Gb  cmain.o [4]
BUTTON_CLK              0x080009f4    0x4  Data  Gb  stm32_eval.o [1]
BUTTON_EXTI_LINE        0x080009f8    0x2  Data  Gb  stm32_eval.o [1]
BUTTON_IRQn             0x08000a04    0x2  Data  Gb  stm32_eval.o [1]
BUTTON_PIN              0x080009f0    0x2  Data  Gb  stm32_eval.o [1]
BUTTON_PIN_SOURCE       0x08000a00    0x2  Data  Gb  stm32_eval.o [1]
BUTTON_PORT             0x20000004    0x4  Data  Gb  stm32_eval.o [1]
BUTTON_PORT_SOURCE      0x080009fc    0x2  Data  Gb  stm32_eval.o [1]
BusFault_Handler        0x08000a0d    0x2  Code  Gb  stm32f10x_it.o [1]
CSTACK$$Base            0x20000208          --   Gb  - Linker created -
CSTACK$$Limit           0x20000608          --   Gb  - Linker created -
DebugMon_Handler        0x08000a13    0x2  Code  Gb  stm32f10x_it.o [1]
Delay                   0x080000af   0x14  Code  Gb  lcd3310_GPIO.o [1]
EXTI_Init               0x08000a19   0x64  Code  Gb  stm32f10x_exti.o [1]
FontLookup              0x080002f0  0x1d8  Data  Gb  lcd3310_GPIO.o [1]
GPIO_CLK                0x080009ec    0x4  Data  Gb  stm32_eval.o [1]
GPIO_EXTILineConfig     0x080005af   0x22  Code  Gb  stm32f10x_gpio.o [1]
GPIO_Init               0x080004e1   0xbe  Code  Gb  stm32f10x_gpio.o [1]
GPIO_InitStructure      0x20000200    0x4  Data  Gb  main.o [1]
GPIO_PIN                0x080009e8    0x2  Data  Gb  stm32_eval.o [1]
GPIO_PORT               0x20000000    0x4  Data  Gb  stm32_eval.o [1]
GPIO_ReadInputDataBit   0x0800059f   0x10  Code  Gb  stm32f10x_gpio.o [1]
HardFault_Handler       0x08000a09    0x2  Code  Gb  stm32f10x_it.o [1]
LCDChrXY                0x08000207   0x3a  Code  Gb  lcd3310_GPIO.o [1]
LCDChrXYInverse         0x08000241   0x3c  Code  Gb  lcd3310_GPIO.o [1]
LCDClear                0x080001fd    0xa  Code  Gb  lcd3310_GPIO.o [1]
LCDContrast             0x080002a5   0x20  Code  Gb  lcd3310_GPIO.o [1]
LCDInit                 0x080000c3   0x96  Code  Gb  lcd3310_GPIO.o [1]
LCDSend                 0x0800019f   0x5e  Code  Gb  lcd3310_GPIO.o [1]
LCDStr                  0x080002c5   0x2c  Code  Gb  lcd3310_GPIO.o [1]
LCDUpdate               0x08000167   0x38  Code  Gb  lcd3310_GPIO.o [1]
LcdMemory               0x20000008  0x1f8  Data  Gb  lcd3310_GPIO.o [1]
MemManage_Handler       0x08000a0b    0x2  Code  Gb  stm32f10x_it.o [1]
NMI_Handler             0x08000a07    0x2  Code  Gb  stm32f10x_it.o [1]
NVIC_Init               0x08000a81   0x58  Code  Gb  misc.o [1]
PendSV_Handler          0x08000a15    0x2  Code  Gb  stm32f10x_it.o [1]
Pin_Output              0x08000041   0x6e  Code  Gb  lcd3310_GPIO.o [1]
RCC_APB2PeriphClockCmd  0x080004c9   0x12  Code  Gb  stm32f10x_rcc.o [1]
Region$$Table$$Base     0x08000b14          --   Gb  - Linker created -
Region$$Table$$Limit    0x08000b38          --   Gb  - Linker created -
STM_EVAL_LEDInit        0x080008dd   0x3a  Code  Gb  stm32_eval.o [1]
STM_EVAL_LEDToggle      0x08000917   0x16  Code  Gb  stm32_eval.o [1]
STM_EVAL_PBGetState     0x080009cd   0x12  Code  Gb  stm32_eval.o [1]
STM_EVAL_PBInit         0x0800092d   0xa0  Code  Gb  stm32_eval.o [1]
SVC_Handler             0x08000a11    0x2  Code  Gb  stm32f10x_it.o [1]
SysTick_Handler         0x08000a17    0x2  Code  Gb  stm32f10x_it.o [1]
SystemInit              0x080007f9   0xd2  Code  Gb  system_stm32f10x.o [1]
UsageFault_Handler      0x08000a0f    0x2  Code  Gb  stm32f10x_it.o [1]
__aeabi_memclr4         0x080005d5         Code  Gb  ABImemclr4.o [4]
__cmain                 0x08000b39         Code  Gb  cmain.o [4]
__exit                  0x08000b65   0x14  Code  Gb  exit.o [5]
__iar_Memset4_word      0x08000609         Code  Gb  ABImemset48.o [4]
__iar_Memset8_word      0x08000609         Code  Gb  ABImemset48.o [4]
__iar_SB                0x08000b84         Data  Gb  bwt_init3c.o [4]
__iar_copy_init3        0x080005db   0x2e  Code  Gb  copy_init3.o [4]
__iar_data_init3        0x08000ae9   0x2c  Code  Gb  data_init3.o [4]
__iar_program_start     0x08000b79         Code  Gb  cstartup_M.o [4]
__iar_zero_init3        0x0800063b   0x22  Code  Gb  zero_init3.o [4]
__low_level_init        0x08000b4f    0x4  Code  Gb  low_level_init.o [3]
__vector_table          0x08000000         Data  Gb  vector_table_M.o [4]
_call_main              0x08000b45         Code  Gb  cmain.o [4]
_exit                   0x08000b59         Code  Gb  cexit.o [4]
_main                   0x08000b4b         Code  Gb  cmain.o [4]
exit                    0x08000b53    0x4  Code  Gb  exit.o [3]
main                    0x0800065d  0x120  Code  Gb  main.o [1]


[1] = D:\Repository\STM32-P103\Software\trunk\WEB_files\Demo_Example_WEB_files\STM32-P103_UEXT_Demo\Project\MOD-LCD3310_GPIO\Obj
[2] = command line
[3] = dl7M_tln.a
[4] = rt7M_tl.a
[5] = shb_l.a

  2 912 bytes of readonly  code memory
     44 bytes of readonly  data memory
  1 540 bytes of readwrite data memory

Errors: none
Warnings: none
